target datalayout = "e-m:e-p270:32:32-p271:32:32-p272:64:64-i64:64-i128:128-f80:128-n8:16:32:64-S128"
target triple = "x86_64-pc-linux-gnu"

%struct.__sigset_t = type { [16 x i64] }
%struct.sigaction = type { %union.anon.16, %struct.__sigset_t, i32, ptr }
%union.anon.16 = type { ptr }

; Function Attrs: mustprogress nounwind uwtable
define internal void @_ZL29remove_error_signals_from_setP10__sigset_t(ptr noundef %0) #1 {
  %2 = alloca ptr, align 8
  store ptr %0, ptr %2, align 8
  %3 = load ptr, ptr %2, align 8
  %4 = call i32 @sigdelset(ptr noundef %3, i32 noundef 4) #2
  %5 = load ptr, ptr %2, align 8
  %6 = call i32 @sigdelset(ptr noundef %5, i32 noundef 7) #2
  %7 = load ptr, ptr %2, align 8
  %8 = call i32 @sigdelset(ptr noundef %7, i32 noundef 8) #2
  %9 = load ptr, ptr %2, align 8
  %10 = call i32 @sigdelset(ptr noundef %9, i32 noundef 11) #2
  %11 = load ptr, ptr %2, align 8
  %12 = call i32 @sigdelset(ptr noundef %11, i32 noundef 5) #2
  ret void
}

; Function Attrs: mustprogress nounwind uwtable
define hidden noundef i32 @_ZN12PosixSignals32install_sigaction_signal_handlerEP9sigactionS1_iPFviP9siginfo_tPvE(ptr noundef %0, ptr noundef %1, i32 noundef %2, ptr noundef %3) #1 align 2 {
  %5 = alloca ptr, align 8
  %6 = alloca ptr, align 8
  %7 = alloca i32, align 4
  %8 = alloca ptr, align 8
  store ptr %0, ptr %5, align 8
  store ptr %1, ptr %6, align 8
  store i32 %2, ptr %7, align 4
  store ptr %3, ptr %8, align 8
  %9 = load ptr, ptr %5, align 8
  %10 = getelementptr inbounds %struct.sigaction, ptr %9, i32 0, i32 1
  %11 = call i32 @sigfillset(ptr noundef %10) #2
  %12 = load ptr, ptr %5, align 8
  %13 = getelementptr inbounds %struct.sigaction, ptr %12, i32 0, i32 1
  call void @_ZL29remove_error_signals_from_setP10__sigset_t(ptr noundef %13)
  %14 = load ptr, ptr %8, align 8
  %15 = load ptr, ptr %5, align 8
  %16 = getelementptr inbounds %struct.sigaction, ptr %15, i32 0, i32 0
  store ptr %14, ptr %16, align 8
  %17 = load ptr, ptr %5, align 8
  %18 = getelementptr inbounds %struct.sigaction, ptr %17, i32 0, i32 2
  store i32 268435460, ptr %18, align 8
  %19 = load i32, ptr %7, align 4
  %20 = load ptr, ptr %5, align 8
  %21 = load ptr, ptr %6, align 8
  %22 = call i32 @sigaction(i32 noundef %19, ptr noundef %20, ptr noundef %21) #2
  ret i32 %22
}