; Function Attrs: mustprogress nounwind uwtable
define hidden noundef i32 @_ZN12PosixSignals32install_sigaction_signal_handlerEP9sigactionS1_iPFviP9siginfo_tPvE(ptr noundef %0, ptr noundef %1, i32 noundef %2, ptr noundef %3) local_unnamed_addr #0 align 2 {
  %5 = getelementptr inbounds i8, ptr %0, i64 8
  %6 = tail call i32 @sigfillset(ptr noundef nonnull %5) #20
  %7 = tail call i32 @sigdelset(ptr noundef nonnull %5, i32 noundef 4) #20
  %8 = tail call i32 @sigdelset(ptr noundef nonnull %5, i32 noundef 7) #20
  %9 = tail call i32 @sigdelset(ptr noundef nonnull %5, i32 noundef 8) #20
  %10 = tail call i32 @sigdelset(ptr noundef nonnull %5, i32 noundef 11) #20
  %11 = tail call i32 @sigdelset(ptr noundef nonnull %5, i32 noundef 5) #20
  store ptr %3, ptr %0, align 8
  %12 = getelementptr inbounds i8, ptr %0, i64 136
  store i32 268435460, ptr %12, align 8
  %13 = tail call i32 @sigaction(i32 noundef %2, ptr noundef nonnull %0, ptr noundef %1) #20
  ret i32 %13
}